; Function Attrs: mustprogress nounwind uwtable
define dso_local void @_ZN12VlThreadPoolD2Ev(ptr nocapture noundef nonnull readonly align 8 dereferenceable(32) %0) unnamed_addr #4 align 2 personality ptr @__gxx_personality_v0 {
  %2 = getelementptr inbounds i8, ptr %0, i64 8
  %3 = load ptr, ptr %2, align 8
  %4 = getelementptr inbounds i8, ptr %0, i64 16
  %5 = load ptr, ptr %4, align 8
  %6 = icmp eq ptr %3, %5
  br i1 %6, label %._crit_edge, label %.lr.ph

.lr.ph:                                           ; preds = %1, %10
  %.sroa.04.07 = phi ptr [ %11, %10 ], [ %3, %1 ]
  %7 = load ptr, ptr %.sroa.04.07, align 8
  %8 = icmp eq ptr %7, null
  br i1 %8, label %10, label %9

9:                                                ; preds = %.lr.ph
  tail call void @_ZN14VlWorkerThreadD2Ev(ptr noundef nonnull align 8 dereferenceable(152) %7) #22
  tail call void @_ZdlPvm(ptr noundef nonnull %7, i64 noundef 152) #24
  br label %10

10:                                               ; preds = %.lr.ph, %9
  %11 = getelementptr inbounds i8, ptr %.sroa.04.07, i64 8
  %12 = icmp eq ptr %11, %5
  br i1 %12, label %._crit_edge.loopexit, label %.lr.ph

._crit_edge.loopexit:                             ; preds = %10
  %.pre = load ptr, ptr %2, align 8
  br label %._crit_edge

._crit_edge:                                      ; preds = %._crit_edge.loopexit, %1
  %13 = phi ptr [ %.pre, %._crit_edge.loopexit ], [ %3, %1 ]
  %.not.i.i.i = icmp eq ptr %13, null
  br i1 %.not.i.i.i, label %_ZNSt6vectorIP14VlWorkerThreadSaIS1_EED2Ev.exit, label %14

14:                                               ; preds = %._crit_edge
  %15 = getelementptr inbounds i8, ptr %0, i64 24
  %16 = load ptr, ptr %15, align 8
  %17 = ptrtoint ptr %16 to i64
  %18 = ptrtoint ptr %13 to i64
  %19 = sub i64 %17, %18
  tail call void @_ZdlPvm(ptr noundef nonnull %13, i64 noundef %19) #24
  br label %_ZNSt6vectorIP14VlWorkerThreadSaIS1_EED2Ev.exit

_ZNSt6vectorIP14VlWorkerThreadSaIS1_EED2Ev.exit:  ; preds = %._crit_edge, %14
  ret void
}